target datalayout = "e-m:e-p270:32:32-p271:32:32-p272:64:64-i64:64-i128:128-f80:128-n8:16:32:64-S128"
target triple = "x86_64-pc-linux-gnu"

%struct.Vec_Wrd_t_ = type { i32, i32, ptr }

; Function Attrs: nounwind uwtable
define internal ptr @Vec_WrdEntryP(ptr noundef %0, i32 noundef %1) #0 {
  %3 = alloca ptr, align 8
  %4 = alloca i32, align 4
  store ptr %0, ptr %3, align 8
  store i32 %1, ptr %4, align 4
  %5 = load ptr, ptr %3, align 8
  %6 = getelementptr inbounds %struct.Vec_Wrd_t_, ptr %5, i32 0, i32 2
  %7 = load ptr, ptr %6, align 8
  %8 = load i32, ptr %4, align 4
  %9 = sext i32 %8 to i64
  %10 = getelementptr inbounds i64, ptr %7, i64 %9
  ret ptr %10
}

; Function Attrs: nounwind uwtable
define internal i32 @Abc_Truth6WordNum(i32 noundef %0) #0 {
  %2 = alloca i32, align 4
  store i32 %0, ptr %2, align 4
  %3 = load i32, ptr %2, align 4
  %4 = icmp sle i32 %3, 6
  br i1 %4, label %5, label %6

5:                                                ; preds = %1
  br label %10

6:                                                ; preds = %1
  %7 = load i32, ptr %2, align 4
  %8 = sub nsw i32 %7, 6
  %9 = shl i32 1, %8
  br label %10

10:                                               ; preds = %6, %5
  %11 = phi i32 [ 1, %5 ], [ %9, %6 ]
  ret i32 %11
}

; Function Attrs: nounwind uwtable
define ptr @Gia_ManDeriveIsop(ptr noundef %0, i32 noundef %1) #0 {
  %3 = alloca ptr, align 8
  %4 = alloca i32, align 4
  %5 = alloca ptr, align 8
  %6 = alloca i32, align 4
  %7 = alloca [2 x ptr], align 16
  store ptr %0, ptr %3, align 8
  store i32 %1, ptr %4, align 4
  store ptr null, ptr %5, align 8
  %8 = load i32, ptr %4, align 4
  %9 = call i32 @Abc_Truth6WordNum(i32 noundef %8)
  store i32 %9, ptr %6, align 4
  %10 = getelementptr inbounds [2 x ptr], ptr %7, i64 0, i64 0
  %11 = load ptr, ptr %3, align 8
  %12 = load i32, ptr %6, align 4
  %13 = mul nsw i32 0, %12
  %14 = call ptr @Vec_WrdEntryP(ptr noundef %11, i32 noundef %13)
  store ptr %14, ptr %10, align 8
  %15 = getelementptr inbounds ptr, ptr %10, i64 1
  %16 = load ptr, ptr %3, align 8
  %17 = load i32, ptr %6, align 4
  %18 = mul nsw i32 1, %17
  %19 = call ptr @Vec_WrdEntryP(ptr noundef %16, i32 noundef %18)
  store ptr %19, ptr %15, align 8
  %20 = getelementptr inbounds [2 x ptr], ptr %7, i64 0, i64 0
  %21 = load ptr, ptr %20, align 16
  %22 = getelementptr inbounds [2 x ptr], ptr %7, i64 0, i64 1
  %23 = load ptr, ptr %22, align 8
  %24 = load i32, ptr %4, align 4
  %25 = call ptr @Kit_IsopResub(ptr noundef %21, ptr noundef %23, i32 noundef %24, ptr noundef null)
  store ptr %25, ptr %5, align 8
  %26 = load ptr, ptr %5, align 8
  ret ptr %26
}