; Function Attrs: nounwind uwtable
define ptr @Gia_ManDeriveIsop(ptr noundef readonly captures(none) %0, i32 noundef %1) local_unnamed_addr #2 {
  %3 = icmp slt i32 %1, 7
  %4 = add nsw i32 %1, -6
  %5 = shl nuw i32 1, %4
  %6 = select i1 %3, i32 1, i32 %5
  %7 = getelementptr i8, ptr %0, i64 8
  %.val6 = load ptr, ptr %7, align 8
  %8 = sext i32 %6 to i64
  %9 = getelementptr inbounds i64, ptr %.val6, i64 %8
  %10 = tail call ptr @Kit_IsopResub(ptr noundef %.val6, ptr noundef nonnull %9, i32 noundef %1, ptr noundef null) #14
  ret ptr %10
}